; Function Attrs: mustprogress uwtable
define void @_ZN3gmx14PairlistParamsC2ENS_15NbnxmKernelTypeESt8optionalINS_12PairlistTypeEEbfb(ptr noundef nonnull writeonly align 4 captures(none) dereferenceable(36) initializes((4, 5), (8, 18), (20, 36)) %0, i32 noundef %1, i64 %2, i1 noundef zeroext %3, float noundef %4, i1 noundef zeroext %5) unnamed_addr #0 align 2 {
  %.sroa.07.0.extract.trunc = trunc i64 %2 to i32
  %7 = zext i1 %3 to i8
  %8 = zext i1 %5 to i8
  %9 = getelementptr inbounds nuw i8, ptr %0, i64 4
  store i8 %7, ptr %9, align 4, !tbaa !4
  %10 = getelementptr inbounds nuw i8, ptr %0, i64 8
  store float %4, ptr %10, align 4, !tbaa !12
  %11 = getelementptr inbounds nuw i8, ptr %0, i64 12
  store float %4, ptr %11, align 4, !tbaa !13
  %12 = getelementptr inbounds nuw i8, ptr %0, i64 16
  store i8 %8, ptr %12, align 4, !tbaa !14
  %13 = getelementptr inbounds nuw i8, ptr %0, i64 17
  store i8 0, ptr %13, align 1, !tbaa !15
  %14 = getelementptr inbounds nuw i8, ptr %0, i64 20
  store i32 1, ptr %14, align 4, !tbaa !16
  %15 = getelementptr inbounds nuw i8, ptr %0, i64 24
  store i32 -1, ptr %15, align 4, !tbaa !17
  %16 = getelementptr inbounds nuw i8, ptr %0, i64 28
  store i32 1, ptr %16, align 4, !tbaa !18
  %17 = getelementptr inbounds nuw i8, ptr %0, i64 32
  store i32 -1, ptr %17, align 4, !tbaa !19
  switch i32 %1, label %_ZN3gmxL28kernelTypeUsesSimplePairlistENS_15NbnxmKernelTypeE.exit [
    i32 6, label %_ZNKRSt8optionalIN3gmx12PairlistTypeEE5valueEv.exit
    i32 1, label %23
  ]

_ZN3gmxL28kernelTypeUsesSimplePairlistENS_15NbnxmKernelTypeE.exit: ; preds = %6
  %18 = and i32 %1, -2
  %19 = icmp eq i32 %18, 2
  br i1 %19, label %_ZN3gmxL28kernelTypeUsesSimplePairlistENS_15NbnxmKernelTypeE.exit.thread, label %20

20:                                               ; preds = %_ZN3gmxL28kernelTypeUsesSimplePairlistENS_15NbnxmKernelTypeE.exit
  %21 = and i64 %2, 4294967296
  %.not = icmp eq i64 %21, 0
  br i1 %.not, label %22, label %_ZNKRSt8optionalIN3gmx12PairlistTypeEE5valueEv.exit

22:                                               ; preds = %20
  tail call void @_ZN3gmx8internal13assertHandlerEPKcS2_S2_S2_i(ptr noundef nonnull @.str, ptr noundef nonnull @.str.1, ptr noundef nonnull @"__PRETTY_FUNCTION__._ZZN3gmx14PairlistParamsC1ENS_15NbnxmKernelTypeESt8optionalINS_12PairlistTypeEEbfbENK3$_0clEv", ptr noundef nonnull @.str.2, i32 noundef 74) #2
  unreachable

_ZN3gmxL28kernelTypeUsesSimplePairlistENS_15NbnxmKernelTypeE.exit.thread: ; preds = %_ZN3gmxL28kernelTypeUsesSimplePairlistENS_15NbnxmKernelTypeE.exit
  %cond = icmp eq i32 %1, 2
  br i1 %cond, label %_ZNKRSt8optionalIN3gmx12PairlistTypeEE5valueEv.exit, label %23

23:                                               ; preds = %_ZN3gmxL28kernelTypeUsesSimplePairlistENS_15NbnxmKernelTypeE.exit.thread, %6
  br label %_ZNKRSt8optionalIN3gmx12PairlistTypeEE5valueEv.exit

_ZNKRSt8optionalIN3gmx12PairlistTypeEE5valueEv.exit: ; preds = %_ZN3gmxL28kernelTypeUsesSimplePairlistENS_15NbnxmKernelTypeE.exit.thread, %6, %20, %23
  %.sink = phi i32 [ 1, %23 ], [ %.sroa.07.0.extract.trunc, %20 ], [ 4, %6 ], [ 2, %_ZN3gmxL28kernelTypeUsesSimplePairlistENS_15NbnxmKernelTypeE.exit.thread ]
  store i32 %.sink, ptr %0, align 4, !tbaa !20
  ret void
}